; Function Attrs: mustprogress uwtable
define internal fastcc void @_ZN7Imf_3_412_GLOBAL__N_19catStringERKSt6vectorINSt7__cxx1112basic_stringIcSt11char_traitsIcESaIcEEESaIS7_EERS7_(ptr noundef nonnull readonly align 8 captures(none) dereferenceable(24) %0, ptr noundef nonnull align 8 dereferenceable(32) %1) unnamed_addr #6 personality ptr @__gxx_personality_v0 {
  %3 = load ptr, ptr %0, align 8, !tbaa !12
  tail call void @_ZNSt7__cxx1112basic_stringIcSt11char_traitsIcESaIcEE9_M_assignERKS4_(ptr noundef nonnull align 8 dereferenceable(32) %1, ptr noundef nonnull align 8 dereferenceable(32) %3)
  %4 = getelementptr inbounds nuw i8, ptr %0, i64 8
  %5 = load ptr, ptr %4, align 8, !tbaa !9
  %6 = load ptr, ptr %0, align 8, !tbaa !12
  %7 = ptrtoint ptr %5 to i64
  %8 = ptrtoint ptr %6 to i64
  %9 = sub i64 %7, %8
  %10 = icmp ugt i64 %9, 32
  br i1 %10, label %.lr.ph, label %._crit_edge

.lr.ph:                                           ; preds = %2
  %11 = getelementptr inbounds nuw i8, ptr %1, i64 8
  br label %12

._crit_edge:                                      ; preds = %_ZNSt7__cxx1112basic_stringIcSt11char_traitsIcESaIcEEpLERKS4_.exit, %2
  ret void

12:                                               ; preds = %.lr.ph, %_ZNSt7__cxx1112basic_stringIcSt11char_traitsIcESaIcEEpLERKS4_.exit
  %.08 = phi i64 [ 1, %.lr.ph ], [ %27, %_ZNSt7__cxx1112basic_stringIcSt11char_traitsIcESaIcEEpLERKS4_.exit ]
  %13 = load i64, ptr %11, align 8, !tbaa !15
  %14 = icmp eq i64 %13, 4611686018427387903
  br i1 %14, label %15, label %_ZNSt7__cxx1112basic_stringIcSt11char_traitsIcESaIcEEpLEPKc.exit

15:                                               ; preds = %12
  tail call void @_ZSt20__throw_length_errorPKc(ptr noundef nonnull @.str.36) #35
  unreachable

_ZNSt7__cxx1112basic_stringIcSt11char_traitsIcESaIcEEpLEPKc.exit: ; preds = %12
  %16 = tail call noundef nonnull align 8 dereferenceable(32) ptr @_ZNSt7__cxx1112basic_stringIcSt11char_traitsIcESaIcEE9_M_appendEPKcm(ptr noundef nonnull align 8 dereferenceable(32) %1, ptr noundef nonnull @.str.35, i64 noundef 1)
  %17 = load ptr, ptr %0, align 8, !tbaa !12
  %18 = getelementptr inbounds nuw %"class.std::__cxx11::basic_string", ptr %17, i64 %.08
  %19 = getelementptr inbounds nuw i8, ptr %18, i64 8
  %20 = load i64, ptr %19, align 8, !tbaa !15
  %21 = load i64, ptr %11, align 8, !tbaa !15
  %22 = sub i64 4611686018427387903, %21
  %23 = icmp ult i64 %22, %20
  br i1 %23, label %24, label %_ZNSt7__cxx1112basic_stringIcSt11char_traitsIcESaIcEEpLERKS4_.exit

24:                                               ; preds = %_ZNSt7__cxx1112basic_stringIcSt11char_traitsIcESaIcEEpLEPKc.exit
  tail call void @_ZSt20__throw_length_errorPKc(ptr noundef nonnull @.str.36) #35
  unreachable

_ZNSt7__cxx1112basic_stringIcSt11char_traitsIcESaIcEEpLERKS4_.exit: ; preds = %_ZNSt7__cxx1112basic_stringIcSt11char_traitsIcESaIcEEpLEPKc.exit
  %25 = load ptr, ptr %18, align 8, !tbaa !19
  %26 = tail call noundef nonnull align 8 dereferenceable(32) ptr @_ZNSt7__cxx1112basic_stringIcSt11char_traitsIcESaIcEE9_M_appendEPKcm(ptr noundef nonnull align 8 dereferenceable(32) %1, ptr noundef %25, i64 noundef %20)
  %27 = add nuw i64 %.08, 1
  %28 = load ptr, ptr %4, align 8, !tbaa !9
  %29 = load ptr, ptr %0, align 8, !tbaa !12
  %30 = ptrtoint ptr %28 to i64
  %31 = ptrtoint ptr %29 to i64
  %32 = sub i64 %30, %31
  %33 = ashr exact i64 %32, 5
  %34 = icmp ult i64 %27, %33
  br i1 %34, label %12, label %._crit_edge, !llvm.loop !206
}